target datalayout = "e-m:e-p270:32:32-p271:32:32-p272:64:64-i64:64-i128:128-f80:128-n8:16:32:64-S128"
target triple = "x86_64-pc-linux-gnu"

%"class.__gnu_cxx::__normal_iterator.763" = type { ptr }
%"struct.std::_Vector_base.759" = type { %"struct.std::_Vector_base<std::shared_ptr<El>, std::allocator<std::shared_ptr<El>>>::_Vector_impl" }
%"struct.std::_Vector_base<std::shared_ptr<El>, std::allocator<std::shared_ptr<El>>>::_Vector_impl" = type { %"struct.std::_Vector_base<std::shared_ptr<El>, std::allocator<std::shared_ptr<El>>>::_Vector_impl_data" }
%"struct.std::_Vector_base<std::shared_ptr<El>, std::allocator<std::shared_ptr<El>>>::_Vector_impl_data" = type { ptr, ptr, ptr }
%"class.std::shared_ptr" = type { %"class.std::__shared_ptr" }
%"class.std::__shared_ptr" = type { ptr, %"class.std::__shared_count" }
%"class.std::__shared_count" = type { ptr }

; Function Attrs: mustprogress nounwind optsize uwtable
define internal noundef ptr @_ZNKSt12__shared_ptrIZL38nanobind_init_test_stl_bind_vector_extRN8nanobind7module_EE2ElLN9__gnu_cxx12_Lock_policyE2EE3getEv(ptr noundef nonnull align 8 dereferenceable(16) %0) #8 align 2 {
  %2 = alloca ptr, align 8
  store ptr %0, ptr %2, align 8, !tbaa !1070
  %3 = load ptr, ptr %2, align 8
  %4 = getelementptr inbounds nuw %"class.std::__shared_ptr", ptr %3, i32 0, i32 0
  %5 = load ptr, ptr %4, align 8, !tbaa !1072
  ret ptr %5
}

; Function Attrs: inlinehint mustprogress nounwind optsize uwtable
define internal noundef zeroext i1 @_ZSteqIZL38nanobind_init_test_stl_bind_vector_extRN8nanobind7module_EE2ElS3_EbRKSt10shared_ptrIT_ERKS4_IT0_E(ptr noundef nonnull align 8 dereferenceable(16) %0, ptr noundef nonnull align 8 dereferenceable(16) %1) #11 {
  %3 = alloca ptr, align 8
  %4 = alloca ptr, align 8
  store ptr %0, ptr %3, align 8, !tbaa !1058
  store ptr %1, ptr %4, align 8, !tbaa !1058
  %5 = load ptr, ptr %3, align 8, !tbaa !1058
  %6 = call noundef ptr @_ZNKSt12__shared_ptrIZL38nanobind_init_test_stl_bind_vector_extRN8nanobind7module_EE2ElLN9__gnu_cxx12_Lock_policyE2EE3getEv(ptr noundef nonnull align 8 dereferenceable(16) %5) #22
  %7 = load ptr, ptr %4, align 8, !tbaa !1058
  %8 = call noundef ptr @_ZNKSt12__shared_ptrIZL38nanobind_init_test_stl_bind_vector_extRN8nanobind7module_EE2ElLN9__gnu_cxx12_Lock_policyE2EE3getEv(ptr noundef nonnull align 8 dereferenceable(16) %7) #22
  %9 = icmp eq ptr %6, %8
  ret i1 %9
}

; Function Attrs: mustprogress nounwind optsize uwtable
define internal noundef zeroext i1 @_ZNSt7__equalILb0EE5equalIPKSt10shared_ptrIZL38nanobind_init_test_stl_bind_vector_extRN8nanobind7module_EE2ElES9_EEbT_SA_T0_(ptr noundef %0, ptr noundef %1, ptr noundef %2) #8 align 2 {
  %4 = alloca i1, align 1
  %5 = alloca ptr, align 8
  %6 = alloca ptr, align 8
  %7 = alloca ptr, align 8
  store ptr %0, ptr %5, align 8, !tbaa !1058
  store ptr %1, ptr %6, align 8, !tbaa !1058
  store ptr %2, ptr %7, align 8, !tbaa !1058
  br label %8

8:                                                ; preds = %18, %3
  %9 = load ptr, ptr %5, align 8, !tbaa !1058
  %10 = load ptr, ptr %6, align 8, !tbaa !1058
  %11 = icmp ne ptr %9, %10
  br i1 %11, label %12, label %23

12:                                               ; preds = %8
  %13 = load ptr, ptr %5, align 8, !tbaa !1058
  %14 = load ptr, ptr %7, align 8, !tbaa !1058
  %15 = call noundef zeroext i1 @_ZSteqIZL38nanobind_init_test_stl_bind_vector_extRN8nanobind7module_EE2ElS3_EbRKSt10shared_ptrIT_ERKS4_IT0_E(ptr noundef nonnull align 8 dereferenceable(16) %13, ptr noundef nonnull align 8 dereferenceable(16) %14) #22
  br i1 %15, label %17, label %16

16:                                               ; preds = %12
  store i1 false, ptr %4, align 1
  br label %24

17:                                               ; preds = %12
  br label %18

18:                                               ; preds = %17
  %19 = load ptr, ptr %5, align 8, !tbaa !1058
  %20 = getelementptr inbounds nuw %"class.std::shared_ptr", ptr %19, i32 1
  store ptr %20, ptr %5, align 8, !tbaa !1058
  %21 = load ptr, ptr %7, align 8, !tbaa !1058
  %22 = getelementptr inbounds nuw %"class.std::shared_ptr", ptr %21, i32 1
  store ptr %22, ptr %7, align 8, !tbaa !1058
  br label %8, !llvm.loop !1298

23:                                               ; preds = %8
  store i1 true, ptr %4, align 1
  br label %24

24:                                               ; preds = %23, %16
  %25 = load i1, ptr %4, align 1
  ret i1 %25
}

; Function Attrs: mustprogress nounwind optsize uwtable
define internal noundef nonnull align 8 dereferenceable(8) ptr @_ZNK9__gnu_cxx17__normal_iteratorIPKSt10shared_ptrIZL38nanobind_init_test_stl_bind_vector_extRN8nanobind7module_EE2ElESt6vectorIS6_SaIS6_EEE4baseEv(ptr noundef nonnull align 8 dereferenceable(8) %0) #8 align 2 {
  %2 = alloca ptr, align 8
  store ptr %0, ptr %2, align 8, !tbaa !1066
  %3 = load ptr, ptr %2, align 8
  %4 = getelementptr inbounds nuw %"class.__gnu_cxx::__normal_iterator.763", ptr %3, i32 0, i32 0
  ret ptr %4
}

; Function Attrs: inlinehint mustprogress optsize uwtable
define internal noundef zeroext i1 @_ZSt12__equal_aux1IPKSt10shared_ptrIZL38nanobind_init_test_stl_bind_vector_extRN8nanobind7module_EE2ElES7_EbT_S8_T0_(ptr noundef %0, ptr noundef %1, ptr noundef %2) #9 {
  %4 = alloca ptr, align 8
  %5 = alloca ptr, align 8
  %6 = alloca ptr, align 8
  %7 = alloca i8, align 1
  store ptr %0, ptr %4, align 8, !tbaa !1058
  store ptr %1, ptr %5, align 8, !tbaa !1058
  store ptr %2, ptr %6, align 8, !tbaa !1058
  call void @llvm.lifetime.start.p0(i64 1, ptr %7) #21
  store i8 0, ptr %7, align 1, !tbaa !113
  %8 = load ptr, ptr %4, align 8, !tbaa !1058
  %9 = load ptr, ptr %5, align 8, !tbaa !1058
  %10 = load ptr, ptr %6, align 8, !tbaa !1058
  %11 = call noundef zeroext i1 @_ZNSt7__equalILb0EE5equalIPKSt10shared_ptrIZL38nanobind_init_test_stl_bind_vector_extRN8nanobind7module_EE2ElES9_EEbT_SA_T0_(ptr noundef %8, ptr noundef %9, ptr noundef %10) #20
  call void @llvm.lifetime.end.p0(i64 1, ptr %7) #21
  ret i1 %11
}

; Function Attrs: mustprogress nounwind optsize uwtable
define internal noundef ptr @_ZSt12__niter_baseIPKSt10shared_ptrIZL38nanobind_init_test_stl_bind_vector_extRN8nanobind7module_EE2ElESt6vectorIS5_SaIS5_EEET_N9__gnu_cxx17__normal_iteratorISB_T0_EE(ptr %0) #8 {
  %2 = alloca %"class.__gnu_cxx::__normal_iterator.763", align 8
  %3 = getelementptr inbounds nuw %"class.__gnu_cxx::__normal_iterator.763", ptr %2, i32 0, i32 0
  store ptr %0, ptr %3, align 8
  %4 = call noundef nonnull align 8 dereferenceable(8) ptr @_ZNK9__gnu_cxx17__normal_iteratorIPKSt10shared_ptrIZL38nanobind_init_test_stl_bind_vector_extRN8nanobind7module_EE2ElESt6vectorIS6_SaIS6_EEE4baseEv(ptr noundef nonnull align 8 dereferenceable(8) %2) #22
  %5 = load ptr, ptr %4, align 8, !tbaa !1058
  ret ptr %5
}

; Function Attrs: inlinehint mustprogress optsize uwtable
define internal noundef zeroext i1 @_ZSt11__equal_auxIN9__gnu_cxx17__normal_iteratorIPKSt10shared_ptrIZL38nanobind_init_test_stl_bind_vector_extRN8nanobind7module_EE2ElESt6vectorIS7_SaIS7_EEEESD_EbT_SE_T0_(ptr %0, ptr %1, ptr %2) #9 {
  %4 = alloca %"class.__gnu_cxx::__normal_iterator.763", align 8
  %5 = alloca %"class.__gnu_cxx::__normal_iterator.763", align 8
  %6 = alloca %"class.__gnu_cxx::__normal_iterator.763", align 8
  %7 = alloca %"class.__gnu_cxx::__normal_iterator.763", align 8
  %8 = alloca %"class.__gnu_cxx::__normal_iterator.763", align 8
  %9 = alloca %"class.__gnu_cxx::__normal_iterator.763", align 8
  %10 = getelementptr inbounds nuw %"class.__gnu_cxx::__normal_iterator.763", ptr %4, i32 0, i32 0
  store ptr %0, ptr %10, align 8
  %11 = getelementptr inbounds nuw %"class.__gnu_cxx::__normal_iterator.763", ptr %5, i32 0, i32 0
  store ptr %1, ptr %11, align 8
  %12 = getelementptr inbounds nuw %"class.__gnu_cxx::__normal_iterator.763", ptr %6, i32 0, i32 0
  store ptr %2, ptr %12, align 8
  call void @llvm.memcpy.p0.p0.i64(ptr align 8 %7, ptr align 8 %4, i64 8, i1 false), !tbaa.struct !1059
  %13 = getelementptr inbounds nuw %"class.__gnu_cxx::__normal_iterator.763", ptr %7, i32 0, i32 0
  %14 = load ptr, ptr %13, align 8
  %15 = call noundef ptr @_ZSt12__niter_baseIPKSt10shared_ptrIZL38nanobind_init_test_stl_bind_vector_extRN8nanobind7module_EE2ElESt6vectorIS5_SaIS5_EEET_N9__gnu_cxx17__normal_iteratorISB_T0_EE(ptr %14) #22
  call void @llvm.memcpy.p0.p0.i64(ptr align 8 %8, ptr align 8 %5, i64 8, i1 false), !tbaa.struct !1059
  %16 = getelementptr inbounds nuw %"class.__gnu_cxx::__normal_iterator.763", ptr %8, i32 0, i32 0
  %17 = load ptr, ptr %16, align 8
  %18 = call noundef ptr @_ZSt12__niter_baseIPKSt10shared_ptrIZL38nanobind_init_test_stl_bind_vector_extRN8nanobind7module_EE2ElESt6vectorIS5_SaIS5_EEET_N9__gnu_cxx17__normal_iteratorISB_T0_EE(ptr %17) #22
  call void @llvm.memcpy.p0.p0.i64(ptr align 8 %9, ptr align 8 %6, i64 8, i1 false), !tbaa.struct !1059
  %19 = getelementptr inbounds nuw %"class.__gnu_cxx::__normal_iterator.763", ptr %9, i32 0, i32 0
  %20 = load ptr, ptr %19, align 8
  %21 = call noundef ptr @_ZSt12__niter_baseIPKSt10shared_ptrIZL38nanobind_init_test_stl_bind_vector_extRN8nanobind7module_EE2ElESt6vectorIS5_SaIS5_EEET_N9__gnu_cxx17__normal_iteratorISB_T0_EE(ptr %20) #22
  %22 = call noundef zeroext i1 @_ZSt12__equal_aux1IPKSt10shared_ptrIZL38nanobind_init_test_stl_bind_vector_extRN8nanobind7module_EE2ElES7_EbT_S8_T0_(ptr noundef %15, ptr noundef %18, ptr noundef %21) #20
  ret i1 %22
}

; Function Attrs: mustprogress nounwind optsize uwtable
define internal void @_ZN9__gnu_cxx17__normal_iteratorIPKSt10shared_ptrIZL38nanobind_init_test_stl_bind_vector_extRN8nanobind7module_EE2ElESt6vectorIS6_SaIS6_EEEC2ERKS8_(ptr noundef nonnull align 8 dereferenceable(8) %0, ptr noundef nonnull align 8 dereferenceable(8) %1) unnamed_addr #8 align 2 {
  %3 = alloca ptr, align 8
  %4 = alloca ptr, align 8
  store ptr %0, ptr %3, align 8, !tbaa !1066
  store ptr %1, ptr %4, align 8, !tbaa !1088
  %5 = load ptr, ptr %3, align 8
  %6 = getelementptr inbounds nuw %"class.__gnu_cxx::__normal_iterator.763", ptr %5, i32 0, i32 0
  %7 = load ptr, ptr %4, align 8, !tbaa !1088
  %8 = load ptr, ptr %7, align 8, !tbaa !1058
  store ptr %8, ptr %6, align 8, !tbaa !1068
  ret void
}

; Function Attrs: inlinehint mustprogress optsize uwtable
define internal noundef zeroext i1 @_ZSt5equalIN9__gnu_cxx17__normal_iteratorIPKSt10shared_ptrIZL38nanobind_init_test_stl_bind_vector_extRN8nanobind7module_EE2ElESt6vectorIS7_SaIS7_EEEESD_EbT_SE_T0_(ptr %0, ptr %1, ptr %2) #9 {
  %4 = alloca %"class.__gnu_cxx::__normal_iterator.763", align 8
  %5 = alloca %"class.__gnu_cxx::__normal_iterator.763", align 8
  %6 = alloca %"class.__gnu_cxx::__normal_iterator.763", align 8
  %7 = alloca %"class.__gnu_cxx::__normal_iterator.763", align 8
  %8 = alloca %"class.__gnu_cxx::__normal_iterator.763", align 8
  %9 = alloca %"class.__gnu_cxx::__normal_iterator.763", align 8
  %10 = getelementptr inbounds nuw %"class.__gnu_cxx::__normal_iterator.763", ptr %4, i32 0, i32 0
  store ptr %0, ptr %10, align 8
  %11 = getelementptr inbounds nuw %"class.__gnu_cxx::__normal_iterator.763", ptr %5, i32 0, i32 0
  store ptr %1, ptr %11, align 8
  %12 = getelementptr inbounds nuw %"class.__gnu_cxx::__normal_iterator.763", ptr %6, i32 0, i32 0
  store ptr %2, ptr %12, align 8
  call void @llvm.memcpy.p0.p0.i64(ptr align 8 %7, ptr align 8 %4, i64 8, i1 false), !tbaa.struct !1059
  call void @llvm.memcpy.p0.p0.i64(ptr align 8 %8, ptr align 8 %5, i64 8, i1 false), !tbaa.struct !1059
  call void @llvm.memcpy.p0.p0.i64(ptr align 8 %9, ptr align 8 %6, i64 8, i1 false), !tbaa.struct !1059
  %13 = getelementptr inbounds nuw %"class.__gnu_cxx::__normal_iterator.763", ptr %7, i32 0, i32 0
  %14 = load ptr, ptr %13, align 8
  %15 = getelementptr inbounds nuw %"class.__gnu_cxx::__normal_iterator.763", ptr %8, i32 0, i32 0
  %16 = load ptr, ptr %15, align 8
  %17 = getelementptr inbounds nuw %"class.__gnu_cxx::__normal_iterator.763", ptr %9, i32 0, i32 0
  %18 = load ptr, ptr %17, align 8
  %19 = call noundef zeroext i1 @_ZSt11__equal_auxIN9__gnu_cxx17__normal_iteratorIPKSt10shared_ptrIZL38nanobind_init_test_stl_bind_vector_extRN8nanobind7module_EE2ElESt6vectorIS7_SaIS7_EEEESD_EbT_SE_T0_(ptr %14, ptr %16, ptr %18) #20
  ret i1 %19
}

; Function Attrs: mustprogress nounwind optsize uwtable
define internal ptr @_ZNKSt6vectorISt10shared_ptrIZL38nanobind_init_test_stl_bind_vector_extRN8nanobind7module_EE2ElESaIS5_EE3endEv(ptr noundef nonnull align 8 dereferenceable(24) %0) #8 align 2 {
  %2 = alloca %"class.__gnu_cxx::__normal_iterator.763", align 8
  %3 = alloca ptr, align 8
  store ptr %0, ptr %3, align 8, !tbaa !1046
  %4 = load ptr, ptr %3, align 8
  %5 = getelementptr inbounds nuw %"struct.std::_Vector_base.759", ptr %4, i32 0, i32 0
  %6 = getelementptr inbounds nuw %"struct.std::_Vector_base<std::shared_ptr<El>, std::allocator<std::shared_ptr<El>>>::_Vector_impl_data", ptr %5, i32 0, i32 1
  call void @_ZN9__gnu_cxx17__normal_iteratorIPKSt10shared_ptrIZL38nanobind_init_test_stl_bind_vector_extRN8nanobind7module_EE2ElESt6vectorIS6_SaIS6_EEEC2ERKS8_(ptr noundef nonnull align 8 dereferenceable(8) %2, ptr noundef nonnull align 8 dereferenceable(8) %6) #22
  %7 = getelementptr inbounds nuw %"class.__gnu_cxx::__normal_iterator.763", ptr %2, i32 0, i32 0
  %8 = load ptr, ptr %7, align 8
  ret ptr %8
}

; Function Attrs: mustprogress nounwind optsize uwtable
define internal ptr @_ZNKSt6vectorISt10shared_ptrIZL38nanobind_init_test_stl_bind_vector_extRN8nanobind7module_EE2ElESaIS5_EE5beginEv(ptr noundef nonnull align 8 dereferenceable(24) %0) #8 align 2 {
  %2 = alloca %"class.__gnu_cxx::__normal_iterator.763", align 8
  %3 = alloca ptr, align 8
  store ptr %0, ptr %3, align 8, !tbaa !1046
  %4 = load ptr, ptr %3, align 8
  %5 = getelementptr inbounds nuw %"struct.std::_Vector_base.759", ptr %4, i32 0, i32 0
  %6 = getelementptr inbounds nuw %"struct.std::_Vector_base<std::shared_ptr<El>, std::allocator<std::shared_ptr<El>>>::_Vector_impl_data", ptr %5, i32 0, i32 0
  call void @_ZN9__gnu_cxx17__normal_iteratorIPKSt10shared_ptrIZL38nanobind_init_test_stl_bind_vector_extRN8nanobind7module_EE2ElESt6vectorIS6_SaIS6_EEEC2ERKS8_(ptr noundef nonnull align 8 dereferenceable(8) %2, ptr noundef nonnull align 8 dereferenceable(8) %6) #22
  %7 = getelementptr inbounds nuw %"class.__gnu_cxx::__normal_iterator.763", ptr %2, i32 0, i32 0
  %8 = load ptr, ptr %7, align 8
  ret ptr %8
}

; Function Attrs: mustprogress nounwind optsize uwtable
define internal noundef i64 @_ZNKSt6vectorISt10shared_ptrIZL38nanobind_init_test_stl_bind_vector_extRN8nanobind7module_EE2ElESaIS5_EE4sizeEv(ptr noundef nonnull align 8 dereferenceable(24) %0) #8 align 2 {
  %2 = alloca ptr, align 8
  store ptr %0, ptr %2, align 8, !tbaa !1046
  %3 = load ptr, ptr %2, align 8
  %4 = getelementptr inbounds nuw %"struct.std::_Vector_base.759", ptr %3, i32 0, i32 0
  %5 = getelementptr inbounds nuw %"struct.std::_Vector_base<std::shared_ptr<El>, std::allocator<std::shared_ptr<El>>>::_Vector_impl_data", ptr %4, i32 0, i32 1
  %6 = load ptr, ptr %5, align 8, !tbaa !1051
  %7 = getelementptr inbounds nuw %"struct.std::_Vector_base.759", ptr %3, i32 0, i32 0
  %8 = getelementptr inbounds nuw %"struct.std::_Vector_base<std::shared_ptr<El>, std::allocator<std::shared_ptr<El>>>::_Vector_impl_data", ptr %7, i32 0, i32 0
  %9 = load ptr, ptr %8, align 8, !tbaa !1048
  %10 = ptrtoint ptr %6 to i64
  %11 = ptrtoint ptr %9 to i64
  %12 = sub i64 %10, %11
  %13 = sdiv exact i64 %12, 16
  ret i64 %13
}

; Function Attrs: inlinehint mustprogress optsize uwtable
define internal noundef zeroext i1 @_ZSteqISt10shared_ptrIZL38nanobind_init_test_stl_bind_vector_extRN8nanobind7module_EE2ElESaIS5_EEbRKSt6vectorIT_T0_ESC_(ptr noundef nonnull align 8 dereferenceable(24) %0, ptr noundef nonnull align 8 dereferenceable(24) %1) #9 {
  %3 = alloca ptr, align 8
  %4 = alloca ptr, align 8
  %5 = alloca %"class.__gnu_cxx::__normal_iterator.763", align 8
  %6 = alloca %"class.__gnu_cxx::__normal_iterator.763", align 8
  %7 = alloca %"class.__gnu_cxx::__normal_iterator.763", align 8
  store ptr %0, ptr %3, align 8, !tbaa !1046
  store ptr %1, ptr %4, align 8, !tbaa !1046
  %8 = load ptr, ptr %3, align 8, !tbaa !1046
  %9 = call noundef i64 @_ZNKSt6vectorISt10shared_ptrIZL38nanobind_init_test_stl_bind_vector_extRN8nanobind7module_EE2ElESaIS5_EE4sizeEv(ptr noundef nonnull align 8 dereferenceable(24) %8) #22
  %10 = load ptr, ptr %4, align 8, !tbaa !1046
  %11 = call noundef i64 @_ZNKSt6vectorISt10shared_ptrIZL38nanobind_init_test_stl_bind_vector_extRN8nanobind7module_EE2ElESaIS5_EE4sizeEv(ptr noundef nonnull align 8 dereferenceable(24) %10) #22
  %12 = icmp eq i64 %9, %11
  br i1 %12, label %13, label %30

13:                                               ; preds = %2
  %14 = load ptr, ptr %3, align 8, !tbaa !1046
  %15 = call ptr @_ZNKSt6vectorISt10shared_ptrIZL38nanobind_init_test_stl_bind_vector_extRN8nanobind7module_EE2ElESaIS5_EE5beginEv(ptr noundef nonnull align 8 dereferenceable(24) %14) #22
  %16 = getelementptr inbounds nuw %"class.__gnu_cxx::__normal_iterator.763", ptr %5, i32 0, i32 0
  store ptr %15, ptr %16, align 8
  %17 = load ptr, ptr %3, align 8, !tbaa !1046
  %18 = call ptr @_ZNKSt6vectorISt10shared_ptrIZL38nanobind_init_test_stl_bind_vector_extRN8nanobind7module_EE2ElESaIS5_EE3endEv(ptr noundef nonnull align 8 dereferenceable(24) %17) #22
  %19 = getelementptr inbounds nuw %"class.__gnu_cxx::__normal_iterator.763", ptr %6, i32 0, i32 0
  store ptr %18, ptr %19, align 8
  %20 = load ptr, ptr %4, align 8, !tbaa !1046
  %21 = call ptr @_ZNKSt6vectorISt10shared_ptrIZL38nanobind_init_test_stl_bind_vector_extRN8nanobind7module_EE2ElESaIS5_EE5beginEv(ptr noundef nonnull align 8 dereferenceable(24) %20) #22
  %22 = getelementptr inbounds nuw %"class.__gnu_cxx::__normal_iterator.763", ptr %7, i32 0, i32 0
  store ptr %21, ptr %22, align 8
  %23 = getelementptr inbounds nuw %"class.__gnu_cxx::__normal_iterator.763", ptr %5, i32 0, i32 0
  %24 = load ptr, ptr %23, align 8
  %25 = getelementptr inbounds nuw %"class.__gnu_cxx::__normal_iterator.763", ptr %6, i32 0, i32 0
  %26 = load ptr, ptr %25, align 8
  %27 = getelementptr inbounds nuw %"class.__gnu_cxx::__normal_iterator.763", ptr %7, i32 0, i32 0
  %28 = load ptr, ptr %27, align 8
  %29 = call noundef zeroext i1 @_ZSt5equalIN9__gnu_cxx17__normal_iteratorIPKSt10shared_ptrIZL38nanobind_init_test_stl_bind_vector_extRN8nanobind7module_EE2ElESt6vectorIS7_SaIS7_EEEESD_EbT_SE_T0_(ptr %24, ptr %26, ptr %28) #20
  br label %30

30:                                               ; preds = %13, %2
  %31 = phi i1 [ false, %2 ], [ %29, %13 ]
  ret i1 %31
}

; Function Attrs: inlinehint mustprogress optsize uwtable
define internal noundef zeroext i1 @_ZStneISt10shared_ptrIZL38nanobind_init_test_stl_bind_vector_extRN8nanobind7module_EE2ElESaIS5_EEbRKSt6vectorIT_T0_ESC_(ptr noundef nonnull align 8 dereferenceable(24) %0, ptr noundef nonnull align 8 dereferenceable(24) %1) #9 {
  %3 = alloca ptr, align 8
  %4 = alloca ptr, align 8
  store ptr %0, ptr %3, align 8, !tbaa !1046
  store ptr %1, ptr %4, align 8, !tbaa !1046
  %5 = load ptr, ptr %3, align 8, !tbaa !1046
  %6 = load ptr, ptr %4, align 8, !tbaa !1046
  %7 = call noundef zeroext i1 @_ZSteqISt10shared_ptrIZL38nanobind_init_test_stl_bind_vector_extRN8nanobind7module_EE2ElESaIS5_EEbRKSt6vectorIT_T0_ESC_(ptr noundef nonnull align 8 dereferenceable(24) %5, ptr noundef nonnull align 8 dereferenceable(24) %6) #20
  %8 = xor i1 %7, true
  ret i1 %8
}

; Function Attrs: mustprogress optsize uwtable
define internal noundef zeroext i1 @_ZN8nanobind6detail7op_implILNS0_5op_idE26ELNS0_7op_typeE0ESt6vectorISt10shared_ptrIZL38nanobind_init_test_stl_bind_vector_extRNS_7module_EE2ElESaIS9_EESB_SB_E7executeERKSB_SE_(ptr noundef nonnull align 8 dereferenceable(24) %0, ptr noundef nonnull align 8 dereferenceable(24) %1) #0 align 2 {
  %3 = alloca ptr, align 8
  %4 = alloca ptr, align 8
  store ptr %0, ptr %3, align 8, !tbaa !1046
  store ptr %1, ptr %4, align 8, !tbaa !1046
  %5 = load ptr, ptr %3, align 8, !tbaa !1046
  %6 = load ptr, ptr %4, align 8, !tbaa !1046
  %7 = call noundef zeroext i1 @_ZStneISt10shared_ptrIZL38nanobind_init_test_stl_bind_vector_extRN8nanobind7module_EE2ElESaIS5_EEbRKSt6vectorIT_T0_ESC_(ptr noundef nonnull align 8 dereferenceable(24) %5, ptr noundef nonnull align 8 dereferenceable(24) %6) #20
  ret i1 %7
}