; Function Attrs: mustprogress nofree norecurse nosync nounwind optsize willreturn memory(read, inaccessiblemem: none) uwtable
define internal noundef zeroext i1 @_ZN8nanobind6detail7op_implILNS0_5op_idE26ELNS0_7op_typeE0ESt6vectorISt10shared_ptrIZL38nanobind_init_test_stl_bind_vector_extRNS_7module_EE2ElESaIS9_EESB_SB_E7executeERKSB_SE_(ptr noundef nonnull readonly align 8 captures(none) dereferenceable(24) %0, ptr noundef nonnull readonly align 8 captures(none) dereferenceable(24) %1) #20 align 2 {
  %.val = load ptr, ptr %0, align 8, !tbaa !421
  %3 = getelementptr inbounds nuw i8, ptr %0, i64 8
  %.val2 = load ptr, ptr %3, align 8, !tbaa !424
  %.val3 = load ptr, ptr %1, align 8, !tbaa !421
  %4 = getelementptr inbounds nuw i8, ptr %1, i64 8
  %.val4 = load ptr, ptr %4, align 8, !tbaa !424
  %5 = ptrtoint ptr %.val2 to i64
  %6 = ptrtoint ptr %.val to i64
  %7 = sub i64 %5, %6
  %8 = ptrtoint ptr %.val4 to i64
  %9 = ptrtoint ptr %.val3 to i64
  %10 = sub i64 %8, %9
  %11 = icmp eq i64 %7, %10
  br i1 %11, label %12, label %_ZStneISt10shared_ptrIZL38nanobind_init_test_stl_bind_vector_extRN8nanobind7module_EE2ElESaIS5_EEbRKSt6vectorIT_T0_ESC_.exit

12:                                               ; preds = %2
  %.not9.i.i.i.i.i.i = icmp eq ptr %.val, %.val2
  br i1 %.not9.i.i.i.i.i.i, label %_ZStneISt10shared_ptrIZL38nanobind_init_test_stl_bind_vector_extRN8nanobind7module_EE2ElESaIS5_EEbRKSt6vectorIT_T0_ESC_.exit, label %.lr.ph.i.i.i.i.i.i

.lr.ph.i.i.i.i.i.i:                               ; preds = %12, %.lr.ph.i.i.i.i.i.i
  %.011.i.i.i.i.i.i = phi ptr [ %14, %.lr.ph.i.i.i.i.i.i ], [ %.val3, %12 ]
  %.0810.i.i.i.i.i.i = phi ptr [ %13, %.lr.ph.i.i.i.i.i.i ], [ %.val, %12 ]
  %.08.val.i.i.i.i.i.i = load ptr, ptr %.0810.i.i.i.i.i.i, align 8, !tbaa !428
  %.0.val.i.i.i.i.i.i = load ptr, ptr %.011.i.i.i.i.i.i, align 8, !tbaa !428
  %.not.i.not = icmp ne ptr %.08.val.i.i.i.i.i.i, %.0.val.i.i.i.i.i.i
  %13 = getelementptr inbounds nuw i8, ptr %.0810.i.i.i.i.i.i, i64 16
  %14 = getelementptr inbounds nuw i8, ptr %.011.i.i.i.i.i.i, i64 16
  %.not.i.i.i.i.i.i = icmp eq ptr %13, %.val2
  %or.cond = select i1 %.not.i.not, i1 true, i1 %.not.i.i.i.i.i.i
  br i1 %or.cond, label %_ZStneISt10shared_ptrIZL38nanobind_init_test_stl_bind_vector_extRN8nanobind7module_EE2ElESaIS5_EEbRKSt6vectorIT_T0_ESC_.exit, label %.lr.ph.i.i.i.i.i.i, !llvm.loop !548

_ZStneISt10shared_ptrIZL38nanobind_init_test_stl_bind_vector_extRN8nanobind7module_EE2ElESaIS5_EEbRKSt6vectorIT_T0_ESC_.exit: ; preds = %.lr.ph.i.i.i.i.i.i, %2, %12
  %15 = phi i1 [ true, %2 ], [ false, %12 ], [ %.not.i.not, %.lr.ph.i.i.i.i.i.i ]
  ret i1 %15
}